; Function Attrs: mustprogress nounwind uwtable
define dso_local void @_ZN5clang4ento22PathSensitiveBugReport13clearVisitorsEv(ptr noundef nonnull align 8 dereferenceable(1016) %0) local_unnamed_addr #3 align 2 {
  %2 = getelementptr inbounds nuw i8, ptr %0, i64 600
  %3 = load ptr, ptr %2, align 8
  %4 = tail call noundef i64 @_ZNK4llvm15SmallVectorBaseIjE4sizeEv(ptr noundef nonnull align 8 dereferenceable(16) %2) #26
  %.not4.i.i = icmp eq i64 %4, 0
  br i1 %.not4.i.i, label %_ZN4llvm15SmallVectorImplISt10unique_ptrIN5clang4ento18BugReporterVisitorESt14default_deleteIS4_EEE5clearEv.exit, label %.lr.ph.i.preheader.i

.lr.ph.i.preheader.i:                             ; preds = %1
  %5 = getelementptr inbounds %"class.std::unique_ptr", ptr %3, i64 %4
  br label %.lr.ph.i.i

.lr.ph.i.i:                                       ; preds = %_ZNSt10unique_ptrIN5clang4ento18BugReporterVisitorESt14default_deleteIS2_EED2Ev.exit.i.i, %.lr.ph.i.preheader.i
  %.05.i.i = phi ptr [ %6, %_ZNSt10unique_ptrIN5clang4ento18BugReporterVisitorESt14default_deleteIS2_EED2Ev.exit.i.i ], [ %5, %.lr.ph.i.preheader.i ]
  %6 = getelementptr inbounds i8, ptr %.05.i.i, i64 -8
  %7 = load ptr, ptr %6, align 8
  %.not.i.i.i = icmp eq ptr %7, null
  br i1 %.not.i.i.i, label %_ZNSt10unique_ptrIN5clang4ento18BugReporterVisitorESt14default_deleteIS2_EED2Ev.exit.i.i, label %_ZNKSt14default_deleteIN5clang4ento18BugReporterVisitorEEclEPS2_.exit.i.i.i

_ZNKSt14default_deleteIN5clang4ento18BugReporterVisitorEEclEPS2_.exit.i.i.i: ; preds = %.lr.ph.i.i
  %8 = load ptr, ptr %7, align 8
  %9 = getelementptr inbounds i8, ptr %8, i64 8
  %10 = load ptr, ptr %9, align 8
  tail call void %10(ptr noundef nonnull align 8 dereferenceable(16) %7) #26
  br label %_ZNSt10unique_ptrIN5clang4ento18BugReporterVisitorESt14default_deleteIS2_EED2Ev.exit.i.i

_ZNSt10unique_ptrIN5clang4ento18BugReporterVisitorESt14default_deleteIS2_EED2Ev.exit.i.i: ; preds = %_ZNKSt14default_deleteIN5clang4ento18BugReporterVisitorEEclEPS2_.exit.i.i.i, %.lr.ph.i.i
  store ptr null, ptr %6, align 8
  %.not.i.i = icmp eq ptr %3, %6
  br i1 %.not.i.i, label %_ZN4llvm15SmallVectorImplISt10unique_ptrIN5clang4ento18BugReporterVisitorESt14default_deleteIS4_EEE5clearEv.exit, label %.lr.ph.i.i, !llvm.loop !40

_ZN4llvm15SmallVectorImplISt10unique_ptrIN5clang4ento18BugReporterVisitorESt14default_deleteIS4_EEE5clearEv.exit: ; preds = %_ZNSt10unique_ptrIN5clang4ento18BugReporterVisitorESt14default_deleteIS2_EED2Ev.exit.i.i, %1
  %11 = getelementptr inbounds i8, ptr %0, i64 608
  store i32 0, ptr %11, align 8
  ret void
}